target datalayout = "e-m:e-p270:32:32-p271:32:32-p272:64:64-i64:64-i128:128-f80:128-n8:16:32:64-S128"
target triple = "x86_64-pc-linux-gnu"

%struct.built_in_curve = type { i32, [8 x i8], i8, ptr, ptr }
%struct.curve_data = type { ptr, i8, i8, [0 x i8] }
%struct.EC_builtin_curve = type { i32, ptr }

; Function Attrs: nounwind uwtable
define hidden i64 @EC_get_builtin_curves(ptr noundef %0, i64 noundef %1) #1 {
  %3 = alloca ptr, align 8
  %4 = alloca i64, align 8
  %5 = alloca i32, align 4
  %6 = alloca i32, align 4
  store ptr %0, ptr %3, align 8, !tbaa !59
  store i64 %1, ptr %4, align 8, !tbaa !52
  call void @llvm.lifetime.start.p0(i64 4, ptr %5) #7
  store i32 0, ptr %5, align 4, !tbaa !33
  br label %7

7:                                                ; preds = %16, %2
  %8 = load i32, ptr %5, align 4, !tbaa !33
  %9 = zext i32 %8 to i64
  %10 = getelementptr inbounds nuw [5 x %struct.built_in_curve], ptr @OPENSSL_built_in_curves, i64 0, i64 %9
  %11 = getelementptr inbounds nuw %struct.built_in_curve, ptr %10, i32 0, i32 0
  %12 = load i32, ptr %11, align 16, !tbaa !34
  %13 = icmp eq i32 %12, 0
  br i1 %13, label %14, label %15

14:                                               ; preds = %7
  br label %19

15:                                               ; preds = %7
  br label %16

16:                                               ; preds = %15
  %17 = load i32, ptr %5, align 4, !tbaa !33
  %18 = add i32 %17, 1
  store i32 %18, ptr %5, align 4, !tbaa !33
  br label %7

19:                                               ; preds = %14
  call void @llvm.lifetime.start.p0(i64 4, ptr %6) #7
  store i32 0, ptr %6, align 4, !tbaa !33
  br label %20

20:                                               ; preds = %54, %19
  %21 = load i32, ptr %6, align 4, !tbaa !33
  %22 = zext i32 %21 to i64
  %23 = load i64, ptr %4, align 8, !tbaa !52
  %24 = icmp ult i64 %22, %23
  br i1 %24, label %25, label %29

25:                                               ; preds = %20
  %26 = load i32, ptr %6, align 4, !tbaa !33
  %27 = load i32, ptr %5, align 4, !tbaa !33
  %28 = icmp ult i32 %26, %27
  br label %29

29:                                               ; preds = %25, %20
  %30 = phi i1 [ false, %20 ], [ %28, %25 ]
  br i1 %30, label %31, label %57

31:                                               ; preds = %29
  %32 = load i32, ptr %6, align 4, !tbaa !33
  %33 = zext i32 %32 to i64
  %34 = getelementptr inbounds nuw [5 x %struct.built_in_curve], ptr @OPENSSL_built_in_curves, i64 0, i64 %33
  %35 = getelementptr inbounds nuw %struct.built_in_curve, ptr %34, i32 0, i32 3
  %36 = load ptr, ptr %35, align 16, !tbaa !41
  %37 = getelementptr inbounds nuw %struct.curve_data, ptr %36, i32 0, i32 0
  %38 = load ptr, ptr %37, align 8, !tbaa !44
  %39 = load ptr, ptr %3, align 8, !tbaa !59
  %40 = load i32, ptr %6, align 4, !tbaa !33
  %41 = zext i32 %40 to i64
  %42 = getelementptr inbounds nuw %struct.EC_builtin_curve, ptr %39, i64 %41
  %43 = getelementptr inbounds nuw %struct.EC_builtin_curve, ptr %42, i32 0, i32 1
  store ptr %38, ptr %43, align 8, !tbaa !60
  %44 = load i32, ptr %6, align 4, !tbaa !33
  %45 = zext i32 %44 to i64
  %46 = getelementptr inbounds nuw [5 x %struct.built_in_curve], ptr @OPENSSL_built_in_curves, i64 0, i64 %45
  %47 = getelementptr inbounds nuw %struct.built_in_curve, ptr %46, i32 0, i32 0
  %48 = load i32, ptr %47, align 16, !tbaa !34
  %49 = load ptr, ptr %3, align 8, !tbaa !59
  %50 = load i32, ptr %6, align 4, !tbaa !33
  %51 = zext i32 %50 to i64
  %52 = getelementptr inbounds nuw %struct.EC_builtin_curve, ptr %49, i64 %51
  %53 = getelementptr inbounds nuw %struct.EC_builtin_curve, ptr %52, i32 0, i32 0
  store i32 %48, ptr %53, align 8, !tbaa !62
  br label %54

54:                                               ; preds = %31
  %55 = load i32, ptr %6, align 4, !tbaa !33
  %56 = add i32 %55, 1
  store i32 %56, ptr %6, align 4, !tbaa !33
  br label %20, !llvm.loop !63

57:                                               ; preds = %29
  %58 = load i32, ptr %5, align 4, !tbaa !33
  %59 = zext i32 %58 to i64
  call void @llvm.lifetime.end.p0(i64 4, ptr %6) #7
  call void @llvm.lifetime.end.p0(i64 4, ptr %5) #7
  ret i64 %59
}