; Function Attrs: nofree norecurse nosync nounwind memory(read, argmem: readwrite, inaccessiblemem: none) uwtable
define hidden noundef range(i64 0, 4294967296) i64 @EC_get_builtin_curves(ptr noundef writeonly captures(none) %0, i64 noundef %1) local_unnamed_addr #8 {
.preheader:
  %.not = icmp eq i64 %1, 0
  br i1 %.not, label %._crit_edge, label %.lr.ph.preheader

.lr.ph.preheader:                                 ; preds = %.preheader
  %2 = add i64 %1, -1
  %umin = tail call i64 @llvm.umin.i64(i64 %2, i64 3)
  br label %.lr.ph

.lr.ph:                                           ; preds = %.lr.ph.preheader, %.lr.ph
  %indvars.iv = phi i64 [ 0, %.lr.ph.preheader ], [ %indvars.iv.next, %.lr.ph ]
  %3 = getelementptr inbounds nuw [5 x %struct.built_in_curve], ptr @OPENSSL_built_in_curves, i64 0, i64 %indvars.iv
  %4 = getelementptr inbounds nuw i8, ptr %3, i64 16
  %5 = load ptr, ptr %4, align 16, !tbaa !30
  %6 = load ptr, ptr %5, align 8, !tbaa !42
  %7 = getelementptr inbounds nuw %struct.EC_builtin_curve, ptr %0, i64 %indvars.iv
  %8 = getelementptr inbounds nuw i8, ptr %7, i64 8
  store ptr %6, ptr %8, align 8, !tbaa !44
  %9 = load i32, ptr %3, align 16, !tbaa !27
  store i32 %9, ptr %7, align 8, !tbaa !46
  %indvars.iv.next = add nuw nsw i64 %indvars.iv, 1
  %exitcond.not = icmp eq i64 %indvars.iv, %umin
  br i1 %exitcond.not, label %._crit_edge, label %.lr.ph, !llvm.loop !47

._crit_edge:                                      ; preds = %.lr.ph, %.preheader
  ret i64 4
}